target datalayout = "e-m:e-p270:32:32-p271:32:32-p272:64:64-i64:64-i128:128-f80:128-n8:16:32:64-S128"
target triple = "x86_64-pc-linux-gnu"

%"struct.std::_Rb_tree_header" = type { %"struct.std::_Rb_tree_node_base", i64 }
%"struct.std::_Rb_tree_node_base" = type { i32, ptr, ptr, ptr }
%"class.std::__cxx11::basic_string" = type { %"struct.std::__cxx11::basic_string<char>::_Alloc_hider", i64, %union.anon }
%"struct.std::__cxx11::basic_string<char>::_Alloc_hider" = type { ptr }
%union.anon = type { i64, [8 x i8] }
%"struct.Yosys::AST::AstNode" = type <{ i32, i32, %"class.std::vector", %"class.std::map", %"class.std::__cxx11::basic_string", %"class.std::vector.6", i8, i8, i8, i8, i8, i8, i8, i8, i8, i8, i8, i8, i8, [3 x i8], i32, i32, i32, i32, double, i8, [7 x i8], %"class.std::vector.11", i32, [4 x i8], ptr, i8, i8, [6 x i8], %"class.std::__cxx11::basic_string", %"struct.Yosys::AST::AstSrcLocType", i8, i8, i8, i8, [4 x i8] }>
%"class.std::vector" = type { %"struct.std::_Vector_base" }
%"struct.std::_Vector_base" = type { %"struct.std::_Vector_base<Yosys::AST::AstNode *, std::allocator<Yosys::AST::AstNode *>>::_Vector_impl" }
%"struct.std::_Vector_base<Yosys::AST::AstNode *, std::allocator<Yosys::AST::AstNode *>>::_Vector_impl" = type { %"struct.std::_Vector_base<Yosys::AST::AstNode *, std::allocator<Yosys::AST::AstNode *>>::_Vector_impl_data" }
%"struct.std::_Vector_base<Yosys::AST::AstNode *, std::allocator<Yosys::AST::AstNode *>>::_Vector_impl_data" = type { ptr, ptr, ptr }
%"class.std::map" = type { %"class.std::_Rb_tree" }
%"class.std::_Rb_tree" = type { %"struct.std::_Rb_tree<Yosys::RTLIL::IdString, std::pair<const Yosys::RTLIL::IdString, Yosys::AST::AstNode *>, std::_Select1st<std::pair<const Yosys::RTLIL::IdString, Yosys::AST::AstNode *>>, std::less<Yosys::RTLIL::IdString>>::_Rb_tree_impl" }
%"struct.std::_Rb_tree<Yosys::RTLIL::IdString, std::pair<const Yosys::RTLIL::IdString, Yosys::AST::AstNode *>, std::_Select1st<std::pair<const Yosys::RTLIL::IdString, Yosys::AST::AstNode *>>, std::less<Yosys::RTLIL::IdString>>::_Rb_tree_impl" = type { [8 x i8], %"struct.std::_Rb_tree_header" }
%"class.std::vector.6" = type { %"struct.std::_Vector_base.7" }
%"struct.std::_Vector_base.7" = type { %"struct.std::_Vector_base<Yosys::RTLIL::State, std::allocator<Yosys::RTLIL::State>>::_Vector_impl" }
%"struct.std::_Vector_base<Yosys::RTLIL::State, std::allocator<Yosys::RTLIL::State>>::_Vector_impl" = type { %"struct.std::_Vector_base<Yosys::RTLIL::State, std::allocator<Yosys::RTLIL::State>>::_Vector_impl_data" }
%"struct.std::_Vector_base<Yosys::RTLIL::State, std::allocator<Yosys::RTLIL::State>>::_Vector_impl_data" = type { ptr, ptr, ptr }
%"class.std::vector.11" = type { %"struct.std::_Vector_base.12" }
%"struct.std::_Vector_base.12" = type { %"struct.std::_Vector_base<Yosys::AST::AstNode::dimension_t, std::allocator<Yosys::AST::AstNode::dimension_t>>::_Vector_impl" }
%"struct.std::_Vector_base<Yosys::AST::AstNode::dimension_t, std::allocator<Yosys::AST::AstNode::dimension_t>>::_Vector_impl" = type { %"struct.std::_Vector_base<Yosys::AST::AstNode::dimension_t, std::allocator<Yosys::AST::AstNode::dimension_t>>::_Vector_impl_data" }
%"struct.std::_Vector_base<Yosys::AST::AstNode::dimension_t, std::allocator<Yosys::AST::AstNode::dimension_t>>::_Vector_impl_data" = type { ptr, ptr, ptr }
%"struct.Yosys::AST::AstSrcLocType" = type { i32, i32, i32, i32 }
%"class.__gnu_cxx::__normal_iterator" = type { ptr }
%"struct.Yosys::AST::AstNode::dimension_t" = type { i32, i32, i8 }

; Function Attrs: mustprogress nounwind uwtable
define linkonce_odr void @_ZN9__gnu_cxx17__normal_iteratorIPPN5Yosys3AST7AstNodeESt6vectorIS4_SaIS4_EEEC2ERKS5_(ptr noundef nonnull align 8 dereferenceable(8) %0, ptr noundef nonnull align 8 dereferenceable(8) %1) unnamed_addr #6 comdat align 2 {
  %3 = alloca ptr, align 8
  %4 = alloca ptr, align 8
  store ptr %0, ptr %3, align 8, !tbaa !60
  store ptr %1, ptr %4, align 8, !tbaa !770
  %5 = load ptr, ptr %3, align 8
  %6 = getelementptr inbounds nuw %"class.__gnu_cxx::__normal_iterator", ptr %5, i32 0, i32 0
  %7 = load ptr, ptr %4, align 8, !tbaa !770
  %8 = load ptr, ptr %7, align 8, !tbaa !62
  store ptr %8, ptr %6, align 8, !tbaa !63
  ret void
}

; Function Attrs: mustprogress uwtable
define internal noundef ptr @_ZN5YosysL8node_intEi(i32 noundef %0) #4 {
  %2 = alloca i32, align 4
  store i32 %0, ptr %2, align 4, !tbaa !74
  %3 = load i32, ptr %2, align 4, !tbaa !74
  %4 = call noundef ptr @_ZN5Yosys3AST7AstNode11mkconst_intEjbi(i32 noundef %3, i1 noundef zeroext true, i32 noundef 32)
  ret ptr %4
}

; Function Attrs: mustprogress nounwind uwtable
define linkonce_odr noundef nonnull align 8 dereferenceable(8) ptr @_ZNK9__gnu_cxx17__normal_iteratorIPPN5Yosys3AST7AstNodeESt6vectorIS4_SaIS4_EEEdeEv(ptr noundef nonnull align 8 dereferenceable(8) %0) #6 comdat align 2 {
  %2 = alloca ptr, align 8
  store ptr %0, ptr %2, align 8, !tbaa !60
  %3 = load ptr, ptr %2, align 8
  %4 = getelementptr inbounds nuw %"class.__gnu_cxx::__normal_iterator", ptr %3, i32 0, i32 0
  %5 = load ptr, ptr %4, align 8, !tbaa !63
  ret ptr %5
}

; Function Attrs: mustprogress nounwind uwtable
define linkonce_odr ptr @_ZNK9__gnu_cxx17__normal_iteratorIPPN5Yosys3AST7AstNodeESt6vectorIS4_SaIS4_EEEmiEl(ptr noundef nonnull align 8 dereferenceable(8) %0, i64 noundef %1) #6 comdat align 2 {
  %3 = alloca %"class.__gnu_cxx::__normal_iterator", align 8
  %4 = alloca ptr, align 8
  %5 = alloca i64, align 8
  %6 = alloca ptr, align 8
  store ptr %0, ptr %4, align 8, !tbaa !60
  store i64 %1, ptr %5, align 8, !tbaa !67
  %7 = load ptr, ptr %4, align 8
  call void @llvm.lifetime.start.p0(i64 8, ptr %6) #3
  %8 = getelementptr inbounds nuw %"class.__gnu_cxx::__normal_iterator", ptr %7, i32 0, i32 0
  %9 = load ptr, ptr %8, align 8, !tbaa !63
  %10 = load i64, ptr %5, align 8, !tbaa !67
  %11 = sub i64 0, %10
  %12 = getelementptr inbounds ptr, ptr %9, i64 %11
  store ptr %12, ptr %6, align 8, !tbaa !62
  call void @_ZN9__gnu_cxx17__normal_iteratorIPPN5Yosys3AST7AstNodeESt6vectorIS4_SaIS4_EEEC2ERKS5_(ptr noundef nonnull align 8 dereferenceable(8) %3, ptr noundef nonnull align 8 dereferenceable(8) %6) #3
  call void @llvm.lifetime.end.p0(i64 8, ptr %6) #3
  %13 = getelementptr inbounds nuw %"class.__gnu_cxx::__normal_iterator", ptr %3, i32 0, i32 0
  %14 = load ptr, ptr %13, align 8
  ret ptr %14
}

; Function Attrs: mustprogress nounwind uwtable
define linkonce_odr ptr @_ZNSt6vectorIPN5Yosys3AST7AstNodeESaIS3_EE3endEv(ptr noundef nonnull align 8 dereferenceable(24) %0) #6 comdat align 2 {
  %2 = alloca %"class.__gnu_cxx::__normal_iterator", align 8
  %3 = alloca ptr, align 8
  store ptr %0, ptr %3, align 8, !tbaa !52
  %4 = load ptr, ptr %3, align 8
  %5 = getelementptr inbounds nuw %"struct.std::_Vector_base", ptr %4, i32 0, i32 0
  %6 = getelementptr inbounds nuw %"struct.std::_Vector_base<Yosys::AST::AstNode *, std::allocator<Yosys::AST::AstNode *>>::_Vector_impl_data", ptr %5, i32 0, i32 1
  call void @_ZN9__gnu_cxx17__normal_iteratorIPPN5Yosys3AST7AstNodeESt6vectorIS4_SaIS4_EEEC2ERKS5_(ptr noundef nonnull align 8 dereferenceable(8) %2, ptr noundef nonnull align 8 dereferenceable(8) %6) #3
  %7 = getelementptr inbounds nuw %"class.__gnu_cxx::__normal_iterator", ptr %2, i32 0, i32 0
  %8 = load ptr, ptr %7, align 8
  ret ptr %8
}

; Function Attrs: mustprogress uwtable
define internal noundef ptr @_ZN5YosysL17multiply_by_constEPNS_3AST7AstNodeEi(ptr noundef %0, i32 noundef %1) #4 personality ptr @__gxx_personality_v0 {
  %3 = alloca ptr, align 8
  %4 = alloca i32, align 4
  %5 = alloca ptr, align 8
  %6 = alloca i32, align 4
  store ptr %0, ptr %3, align 8, !tbaa !6
  store i32 %1, ptr %4, align 4, !tbaa !74
  %7 = call noalias noundef nonnull ptr @_Znwm(i64 noundef 288) #24
  %8 = load ptr, ptr %3, align 8, !tbaa !6
  %9 = load i32, ptr %4, align 4, !tbaa !74
  %10 = invoke noundef ptr @_ZN5YosysL8node_intEi(i32 noundef %9)
          to label %11 unwind label %13

11:                                               ; preds = %2
  invoke void @_ZN5Yosys3AST7AstNodeC1ENS0_11AstNodeTypeEPS1_S3_S3_S3_(ptr noundef nonnull align 8 dereferenceable(284) %7, i32 noundef 62, ptr noundef %8, ptr noundef %10, ptr noundef null, ptr noundef null)
          to label %12 unwind label %13

12:                                               ; preds = %11
  ret ptr %7

13:                                               ; preds = %11, %2
  %14 = landingpad { ptr, i32 }
          cleanup
  %15 = extractvalue { ptr, i32 } %14, 0
  store ptr %15, ptr %5, align 8
  %16 = extractvalue { ptr, i32 } %14, 1
  store i32 %16, ptr %6, align 4
  call void @_ZdlPvm(ptr noundef %7, i64 noundef 288) #25
  br label %17

17:                                               ; preds = %13
  %18 = load ptr, ptr %5, align 8
  %19 = load i32, ptr %6, align 4
  %20 = insertvalue { ptr, i32 } poison, ptr %18, 0
  %21 = insertvalue { ptr, i32 } %20, i32 %19, 1
  resume { ptr, i32 } %21
}

; Function Attrs: mustprogress nounwind uwtable
define linkonce_odr noundef nonnull align 8 dereferenceable(8) ptr @_ZNSt6vectorIPN5Yosys3AST7AstNodeESaIS3_EE4backEv(ptr noundef nonnull align 8 dereferenceable(24) %0) #6 comdat align 2 {
  %2 = alloca ptr, align 8
  %3 = alloca %"class.__gnu_cxx::__normal_iterator", align 8
  %4 = alloca %"class.__gnu_cxx::__normal_iterator", align 8
  store ptr %0, ptr %2, align 8, !tbaa !52
  %5 = load ptr, ptr %2, align 8
  call void @llvm.lifetime.start.p0(i64 8, ptr %3) #3
  call void @llvm.lifetime.start.p0(i64 8, ptr %4) #3
  %6 = call ptr @_ZNSt6vectorIPN5Yosys3AST7AstNodeESaIS3_EE3endEv(ptr noundef nonnull align 8 dereferenceable(24) %5) #3
  %7 = getelementptr inbounds nuw %"class.__gnu_cxx::__normal_iterator", ptr %4, i32 0, i32 0
  store ptr %6, ptr %7, align 8
  %8 = call ptr @_ZNK9__gnu_cxx17__normal_iteratorIPPN5Yosys3AST7AstNodeESt6vectorIS4_SaIS4_EEEmiEl(ptr noundef nonnull align 8 dereferenceable(8) %4, i64 noundef 1) #3
  %9 = getelementptr inbounds nuw %"class.__gnu_cxx::__normal_iterator", ptr %3, i32 0, i32 0
  store ptr %8, ptr %9, align 8
  %10 = call noundef nonnull align 8 dereferenceable(8) ptr @_ZNK9__gnu_cxx17__normal_iteratorIPPN5Yosys3AST7AstNodeESt6vectorIS4_SaIS4_EEEdeEv(ptr noundef nonnull align 8 dereferenceable(8) %3) #3
  call void @llvm.lifetime.end.p0(i64 8, ptr %4) #3
  call void @llvm.lifetime.end.p0(i64 8, ptr %3) #3
  ret ptr %10
}

; Function Attrs: mustprogress nounwind uwtable
define linkonce_odr noundef nonnull align 4 dereferenceable(12) ptr @_ZNSt6vectorIN5Yosys3AST7AstNode11dimension_tESaIS3_EEixEm(ptr noundef nonnull align 8 dereferenceable(24) %0, i64 noundef %1) #6 comdat align 2 {
  %3 = alloca ptr, align 8
  %4 = alloca i64, align 8
  store ptr %0, ptr %3, align 8, !tbaa !324
  store i64 %1, ptr %4, align 8, !tbaa !67
  %5 = load ptr, ptr %3, align 8
  %6 = getelementptr inbounds nuw %"struct.std::_Vector_base.12", ptr %5, i32 0, i32 0
  %7 = getelementptr inbounds nuw %"struct.std::_Vector_base<Yosys::AST::AstNode::dimension_t, std::allocator<Yosys::AST::AstNode::dimension_t>>::_Vector_impl_data", ptr %6, i32 0, i32 0
  %8 = load ptr, ptr %7, align 8, !tbaa !326
  %9 = load i64, ptr %4, align 8, !tbaa !67
  %10 = getelementptr inbounds nuw %"struct.Yosys::AST::AstNode::dimension_t", ptr %8, i64 %9
  ret ptr %10
}

; Function Attrs: mustprogress uwtable
define internal noundef ptr @_ZN5YosysL12index_offsetEPNS_3AST7AstNodeES2_S2_iRi(ptr noundef %0, ptr noundef %1, ptr noundef %2, i32 noundef %3, ptr noundef nonnull align 4 dereferenceable(4) %4) #4 personality ptr @__gxx_personality_v0 {
  %6 = alloca ptr, align 8
  %7 = alloca ptr, align 8
  %8 = alloca ptr, align 8
  %9 = alloca i32, align 4
  %10 = alloca ptr, align 8
  %11 = alloca ptr, align 8
  %12 = alloca ptr, align 8
  %13 = alloca ptr, align 8
  %14 = alloca i1, align 1
  %15 = alloca ptr, align 8
  %16 = alloca i32, align 4
  store ptr %0, ptr %6, align 8, !tbaa !6
  store ptr %1, ptr %7, align 8, !tbaa !6
  store ptr %2, ptr %8, align 8, !tbaa !6
  store i32 %3, ptr %9, align 4, !tbaa !74
  store ptr %4, ptr %10, align 8, !tbaa !327
  %17 = load ptr, ptr %8, align 8, !tbaa !6
  %18 = getelementptr inbounds nuw %"struct.Yosys::AST::AstNode", ptr %17, i32 0, i32 27
  %19 = load i32, ptr %9, align 4, !tbaa !74
  %20 = sext i32 %19 to i64
  %21 = call noundef nonnull align 4 dereferenceable(12) ptr @_ZNSt6vectorIN5Yosys3AST7AstNode11dimension_tESaIS3_EEixEm(ptr noundef nonnull align 8 dereferenceable(24) %18, i64 noundef %20) #3
  %22 = getelementptr inbounds nuw %"struct.Yosys::AST::AstNode::dimension_t", ptr %21, i32 0, i32 1
  %23 = load i32, ptr %22, align 4, !tbaa !214
  %24 = load ptr, ptr %10, align 8, !tbaa !327
  %25 = load i32, ptr %24, align 4, !tbaa !74
  %26 = sdiv i32 %25, %23
  store i32 %26, ptr %24, align 4, !tbaa !74
  call void @llvm.lifetime.start.p0(i64 8, ptr %11) #3
  %27 = load ptr, ptr %7, align 8, !tbaa !6
  %28 = getelementptr inbounds nuw %"struct.Yosys::AST::AstNode", ptr %27, i32 0, i32 2
  %29 = call noundef nonnull align 8 dereferenceable(8) ptr @_ZNSt6vectorIPN5Yosys3AST7AstNodeESaIS3_EE4backEv(ptr noundef nonnull align 8 dereferenceable(24) %28) #3
  %30 = load ptr, ptr %29, align 8, !tbaa !6
  %31 = load ptr, ptr %8, align 8, !tbaa !6
  %32 = load i32, ptr %9, align 4, !tbaa !74
  %33 = call noundef ptr @_ZN5YosysL15normalize_indexEPNS_3AST7AstNodeES2_i(ptr noundef %30, ptr noundef %31, i32 noundef %32)
  store ptr %33, ptr %11, align 8, !tbaa !6
  call void @llvm.lifetime.start.p0(i64 8, ptr %12) #3
  %34 = load ptr, ptr %10, align 8, !tbaa !327
  %35 = load i32, ptr %34, align 4, !tbaa !74
  %36 = icmp sgt i32 %35, 1
  br i1 %36, label %37, label %42

37:                                               ; preds = %5
  %38 = load ptr, ptr %11, align 8, !tbaa !6
  %39 = load ptr, ptr %10, align 8, !tbaa !327
  %40 = load i32, ptr %39, align 4, !tbaa !74
  %41 = call noundef ptr @_ZN5YosysL17multiply_by_constEPNS_3AST7AstNodeEi(ptr noundef %38, i32 noundef %40)
  br label %44

42:                                               ; preds = %5
  %43 = load ptr, ptr %11, align 8, !tbaa !6
  br label %44

44:                                               ; preds = %42, %37
  %45 = phi ptr [ %41, %37 ], [ %43, %42 ]
  store ptr %45, ptr %12, align 8, !tbaa !6
  %46 = load ptr, ptr %6, align 8, !tbaa !6
  %47 = icmp ne ptr %46, null
  store i1 false, ptr %14, align 1
  br i1 %47, label %48, label %53

48:                                               ; preds = %44
  %49 = call noalias noundef nonnull ptr @_Znwm(i64 noundef 288) #24
  store ptr %49, ptr %13, align 8
  store i1 true, ptr %14, align 1
  %50 = load ptr, ptr %6, align 8, !tbaa !6
  %51 = load ptr, ptr %12, align 8, !tbaa !6
  invoke void @_ZN5Yosys3AST7AstNodeC1ENS0_11AstNodeTypeEPS1_S3_S3_S3_(ptr noundef nonnull align 8 dereferenceable(284) %49, i32 noundef 60, ptr noundef %50, ptr noundef %51, ptr noundef null, ptr noundef null)
          to label %52 unwind label %57

52:                                               ; preds = %48
  br label %55

53:                                               ; preds = %44
  %54 = load ptr, ptr %12, align 8, !tbaa !6
  br label %55

55:                                               ; preds = %53, %52
  %56 = phi ptr [ %49, %52 ], [ %54, %53 ]
  call void @llvm.lifetime.end.p0(i64 8, ptr %12) #3
  call void @llvm.lifetime.end.p0(i64 8, ptr %11) #3
  ret ptr %56

57:                                               ; preds = %48
  %58 = landingpad { ptr, i32 }
          cleanup
  %59 = extractvalue { ptr, i32 } %58, 0
  store ptr %59, ptr %15, align 8
  %60 = extractvalue { ptr, i32 } %58, 1
  store i32 %60, ptr %16, align 4
  %61 = load i1, ptr %14, align 1
  br i1 %61, label %62, label %64

62:                                               ; preds = %57
  %63 = load ptr, ptr %13, align 8
  call void @_ZdlPvm(ptr noundef %63, i64 noundef 288) #25
  br label %64

64:                                               ; preds = %62, %57
  call void @llvm.lifetime.end.p0(i64 8, ptr %12) #3
  call void @llvm.lifetime.end.p0(i64 8, ptr %11) #3
  br label %65

65:                                               ; preds = %64
  %66 = load ptr, ptr %15, align 8
  %67 = load i32, ptr %16, align 4
  %68 = insertvalue { ptr, i32 } poison, ptr %66, 0
  %69 = insertvalue { ptr, i32 } %68, i32 %67, 1
  resume { ptr, i32 } %69
}