; Function Attrs: mustprogress uwtable
define internal fastcc noundef ptr @_ZN5YosysL12index_offsetEPNS_3AST7AstNodeES2_S2_iRi(ptr noundef %0, ptr nonnull %.16.val.-8.val, ptr noundef readonly captures(none) %1, i32 noundef %2, ptr noundef nonnull align 4 captures(none) dereferenceable(4) %3) unnamed_addr #3 personality ptr @__gxx_personality_v0 {
  %5 = getelementptr inbounds nuw i8, ptr %1, i64 184
  %6 = sext i32 %2 to i64
  %7 = load ptr, ptr %5, align 8, !tbaa !300
  %8 = getelementptr inbounds nuw %"struct.Yosys::AST::AstNode::dimension_t", ptr %7, i64 %6, i32 1
  %9 = load i32, ptr %8, align 4, !tbaa !309
  %10 = load i32, ptr %3, align 4, !tbaa !61
  %11 = sdiv i32 %10, %9
  store i32 %11, ptr %3, align 4, !tbaa !61
  %12 = tail call fastcc noundef ptr @_ZN5YosysL15normalize_indexEPNS_3AST7AstNodeES2_i(ptr noundef %.16.val.-8.val, ptr noundef %1, i32 noundef %2)
  %13 = load i32, ptr %3, align 4, !tbaa !61
  %14 = icmp sgt i32 %13, 1
  br i1 %14, label %15, label %_ZN5YosysL17multiply_by_constEPNS_3AST7AstNodeEi.exit

15:                                               ; preds = %4
  %16 = tail call noalias noundef nonnull dereferenceable(288) ptr @_Znwm(i64 noundef 288) #40
  %17 = invoke noundef ptr @_ZN5Yosys3AST7AstNode11mkconst_intEjbi(i32 noundef range(i32 2, -2147483648) %13, i1 noundef zeroext true, i32 noundef 32)
          to label %_ZN5YosysL8node_intEi.exit.i unwind label %18

_ZN5YosysL8node_intEi.exit.i:                     ; preds = %15
  invoke void @_ZN5Yosys3AST7AstNodeC1ENS0_11AstNodeTypeEPS1_S3_S3_S3_(ptr noundef nonnull align 8 dereferenceable(284) %16, i32 noundef 62, ptr noundef %12, ptr noundef %17, ptr noundef null, ptr noundef null)
          to label %_ZN5YosysL17multiply_by_constEPNS_3AST7AstNodeEi.exit unwind label %18

common.resume:                                    ; preds = %25, %18
  %.sink = phi ptr [ %22, %25 ], [ %16, %18 ]
  %common.resume.op = phi { ptr, i32 } [ %26, %25 ], [ %19, %18 ]
  tail call void @_ZdlPvm(ptr noundef nonnull %.sink, i64 noundef 288) #38
  resume { ptr, i32 } %common.resume.op

18:                                               ; preds = %_ZN5YosysL8node_intEi.exit.i, %15
  %19 = landingpad { ptr, i32 }
          cleanup
  br label %common.resume

_ZN5YosysL17multiply_by_constEPNS_3AST7AstNodeEi.exit: ; preds = %_ZN5YosysL8node_intEi.exit.i, %4
  %20 = phi ptr [ %12, %4 ], [ %16, %_ZN5YosysL8node_intEi.exit.i ]
  %.not = icmp eq ptr %0, null
  br i1 %.not, label %23, label %21

21:                                               ; preds = %_ZN5YosysL17multiply_by_constEPNS_3AST7AstNodeEi.exit
  %22 = tail call noalias noundef nonnull dereferenceable(288) ptr @_Znwm(i64 noundef 288) #40
  invoke void @_ZN5Yosys3AST7AstNodeC1ENS0_11AstNodeTypeEPS1_S3_S3_S3_(ptr noundef nonnull align 8 dereferenceable(284) %22, i32 noundef 60, ptr noundef nonnull %0, ptr noundef %20, ptr noundef null, ptr noundef null)
          to label %23 unwind label %25

23:                                               ; preds = %_ZN5YosysL17multiply_by_constEPNS_3AST7AstNodeEi.exit, %21
  %24 = phi ptr [ %22, %21 ], [ %20, %_ZN5YosysL17multiply_by_constEPNS_3AST7AstNodeEi.exit ]
  ret ptr %24

25:                                               ; preds = %21
  %26 = landingpad { ptr, i32 }
          cleanup
  br label %common.resume
}